target datalayout = "e-m:e-p270:32:32-p271:32:32-p272:64:64-i64:64-i128:128-f80:128-n8:16:32:64-S128"
target triple = "x86_64-pc-linux-gnu"

%struct._generic_N_Vector = type { ptr, ptr, ptr }
%struct._N_VectorContent_Serial = type { i64, i32, ptr }

; Function Attrs: nounwind uwtable
define void @N_VCompare_Serial(double noundef %0, ptr noundef %1, ptr noundef %2) #0 {
  %4 = alloca double, align 8
  %5 = alloca ptr, align 8
  %6 = alloca ptr, align 8
  %7 = alloca i64, align 8
  %8 = alloca i64, align 8
  %9 = alloca ptr, align 8
  %10 = alloca ptr, align 8
  store double %0, ptr %4, align 8, !tbaa !72
  store ptr %1, ptr %5, align 8, !tbaa !10
  store ptr %2, ptr %6, align 8, !tbaa !10
  call void @llvm.lifetime.start.p0(i64 8, ptr %7) #6
  call void @llvm.lifetime.start.p0(i64 8, ptr %8) #6
  call void @llvm.lifetime.start.p0(i64 8, ptr %9) #6
  call void @llvm.lifetime.start.p0(i64 8, ptr %10) #6
  store ptr null, ptr %10, align 8, !tbaa !69
  store ptr null, ptr %9, align 8, !tbaa !69
  %11 = load ptr, ptr %5, align 8, !tbaa !10
  %12 = getelementptr inbounds nuw %struct._generic_N_Vector, ptr %11, i32 0, i32 0
  %13 = load ptr, ptr %12, align 8, !tbaa !61
  %14 = getelementptr inbounds nuw %struct._N_VectorContent_Serial, ptr %13, i32 0, i32 0
  %15 = load i64, ptr %14, align 8, !tbaa !62
  store i64 %15, ptr %8, align 8, !tbaa !3
  %16 = load ptr, ptr %5, align 8, !tbaa !10
  %17 = getelementptr inbounds nuw %struct._generic_N_Vector, ptr %16, i32 0, i32 0
  %18 = load ptr, ptr %17, align 8, !tbaa !61
  %19 = getelementptr inbounds nuw %struct._N_VectorContent_Serial, ptr %18, i32 0, i32 2
  %20 = load ptr, ptr %19, align 8, !tbaa !67
  store ptr %20, ptr %9, align 8, !tbaa !69
  %21 = load ptr, ptr %6, align 8, !tbaa !10
  %22 = getelementptr inbounds nuw %struct._generic_N_Vector, ptr %21, i32 0, i32 0
  %23 = load ptr, ptr %22, align 8, !tbaa !61
  %24 = getelementptr inbounds nuw %struct._N_VectorContent_Serial, ptr %23, i32 0, i32 2
  %25 = load ptr, ptr %24, align 8, !tbaa !67
  store ptr %25, ptr %10, align 8, !tbaa !69
  store i64 0, ptr %7, align 8, !tbaa !3
  br label %26

26:                                               ; preds = %42, %3
  %27 = load i64, ptr %7, align 8, !tbaa !3
  %28 = load i64, ptr %8, align 8, !tbaa !3
  %29 = icmp slt i64 %27, %28
  br i1 %29, label %30, label %45

30:                                               ; preds = %26
  %31 = load ptr, ptr %9, align 8, !tbaa !69
  %32 = load i64, ptr %7, align 8, !tbaa !3
  %33 = getelementptr inbounds double, ptr %31, i64 %32
  %34 = load double, ptr %33, align 8, !tbaa !72
  %35 = call double @llvm.fabs.f64(double %34)
  %36 = load double, ptr %4, align 8, !tbaa !72
  %37 = fcmp oge double %35, %36
  %38 = select i1 %37, double 1.000000e+00, double 0.000000e+00
  %39 = load ptr, ptr %10, align 8, !tbaa !69
  %40 = load i64, ptr %7, align 8, !tbaa !3
  %41 = getelementptr inbounds double, ptr %39, i64 %40
  store double %38, ptr %41, align 8, !tbaa !72
  br label %42

42:                                               ; preds = %30
  %43 = load i64, ptr %7, align 8, !tbaa !3
  %44 = add nsw i64 %43, 1
  store i64 %44, ptr %7, align 8, !tbaa !3
  br label %26

45:                                               ; preds = %26
  call void @llvm.lifetime.end.p0(i64 8, ptr %10) #6
  call void @llvm.lifetime.end.p0(i64 8, ptr %9) #6
  call void @llvm.lifetime.end.p0(i64 8, ptr %8) #6
  call void @llvm.lifetime.end.p0(i64 8, ptr %7) #6
  ret void
}