; Function Attrs: nofree norecurse nosync nounwind memory(readwrite, inaccessiblemem: none) uwtable
define void @N_VCompare_Serial(double noundef %0, ptr noundef readonly captures(none) %1, ptr noundef readonly captures(none) %2) #7 {
  %4 = load ptr, ptr %1, align 8, !tbaa !54
  %5 = load i64, ptr %4, align 8, !tbaa !55
  %6 = getelementptr inbounds nuw i8, ptr %4, i64 16
  %7 = load ptr, ptr %6, align 8, !tbaa !61
  %8 = load ptr, ptr %2, align 8, !tbaa !54
  %9 = getelementptr inbounds nuw i8, ptr %8, i64 16
  %10 = load ptr, ptr %9, align 8, !tbaa !61
  %11 = icmp sgt i64 %5, 0
  br i1 %11, label %.lr.ph, label %._crit_edge

.lr.ph:                                           ; preds = %3, %.lr.ph
  %.010 = phi i64 [ %18, %.lr.ph ], [ 0, %3 ]
  %12 = getelementptr inbounds nuw double, ptr %7, i64 %.010
  %13 = load double, ptr %12, align 8, !tbaa !64
  %14 = tail call double @llvm.fabs.f64(double %13)
  %15 = fcmp oge double %14, %0
  %16 = select i1 %15, double 1.000000e+00, double 0.000000e+00
  %17 = getelementptr inbounds nuw double, ptr %10, i64 %.010
  store double %16, ptr %17, align 8, !tbaa !64
  %18 = add nuw nsw i64 %.010, 1
  %exitcond.not = icmp eq i64 %18, %5
  br i1 %exitcond.not, label %._crit_edge, label %.lr.ph

._crit_edge:                                      ; preds = %.lr.ph, %3
  ret void
}